(dp0
Vengine
p1
S'pdflatex'
p2
sVpackages
p3
c__builtin__
set
p4
((lp5
Vhyperref
p6
aVxcolor
p7
aVpdfsync
p8
aVbabel
p9
aVlistings
p10
aVgraphics
p11
aVinputenc
p12
atp13
Rp14
sVfiles_with_guttermarks
p15
g4
((lp16
V/Users/sunye/Work/UNCloud/Teaching/SoftwareEngineering/Pattern Catalog/JUnit/./junit-patterns.vrb
p17
aV/Users/sunye/Work/UNCloud/Teaching/SoftwareEngineering/Pattern Catalog/JUnit/./junit-patterns.tex
p18
aS'junit-patterns.tex'
p19
atp20
Rp21
sVsynctex
p22
I01
s.